target datalayout = "e-m:e-p270:32:32-p271:32:32-p272:64:64-i64:64-i128:128-f80:128-n8:16:32:64-S128"
target triple = "x86_64-pc-linux-gnu"

%struct.ZSTD_frameSizeInfo = type { i64, i64, i64 }

; Function Attrs: nounwind uwtable
define internal i64 @ZSTD_findFrameCompressedSize_advanced(ptr noundef %0, i64 noundef %1, i32 noundef %2) #0 {
  %4 = alloca ptr, align 8
  %5 = alloca i64, align 8
  %6 = alloca i32, align 4
  %7 = alloca %struct.ZSTD_frameSizeInfo, align 8
  store ptr %0, ptr %4, align 8, !tbaa !23
  store i64 %1, ptr %5, align 8, !tbaa !24
  store i32 %2, ptr %6, align 4, !tbaa !43
  call void @llvm.lifetime.start.p0(i64 24, ptr %7) #11
  %8 = load ptr, ptr %4, align 8, !tbaa !23
  %9 = load i64, ptr %5, align 8, !tbaa !24
  %10 = load i32, ptr %6, align 4, !tbaa !43
  call void @ZSTD_findFrameSizeInfo(ptr dead_on_unwind writable sret(%struct.ZSTD_frameSizeInfo) align 8 %7, ptr noundef %8, i64 noundef %9, i32 noundef %10)
  %11 = getelementptr inbounds nuw %struct.ZSTD_frameSizeInfo, ptr %7, i32 0, i32 1
  %12 = load i64, ptr %11, align 8, !tbaa !66
  call void @llvm.lifetime.end.p0(i64 24, ptr %7) #11
  ret i64 %12
}

; Function Attrs: nounwind uwtable
define i64 @ZSTD_findFrameCompressedSize(ptr noundef %0, i64 noundef %1) #0 {
  %3 = alloca ptr, align 8
  %4 = alloca i64, align 8
  store ptr %0, ptr %3, align 8, !tbaa !23
  store i64 %1, ptr %4, align 8, !tbaa !24
  %5 = load ptr, ptr %3, align 8, !tbaa !23
  %6 = load i64, ptr %4, align 8, !tbaa !24
  %7 = call i64 @ZSTD_findFrameCompressedSize_advanced(ptr noundef %5, i64 noundef %6, i32 noundef 0)
  ret i64 %7
}